cdjango.db.models.base
model_unpickle
p1
((S'app'
p2
S'BiomSearchJob'
p3
t(lcdjango.db.models.base
simple_class_factory
p4
tRp5
(dp6
S'status'
p7
I10
sS'user_id'
p8
I2
sS'_django_version'
p9
S'1.9.2'
p10
sS'created_at'
p11
cdatetime
datetime
p12
(S'\x07\xe0\x08\x16\x08\x1c%\x0c&/'
cpytz
_UTC
p13
(tRp14
tRp15
sS'_state'
p16
ccopy_reg
_reconstructor
p17
(cdjango.db.models.base
ModelState
p18
c__builtin__
object
p19
NtRp20
(dp21
S'adding'
p22
I00
sS'db'
p23
S'default'
p24
sbsS'updated_at'
p25
g12
(S'\x07\xe0\x08\x16\x08\x1c%\x0c&I'
g14
tRp26
sS'biom_file'
p27
V/home/qiime/www/staticfiles/media/2/26/2-26.biom
p28
sS'_user_cache'
p29
g1
((S'auth'
p30
S'User'
p31
t(lg4
tRp32
(dp33
S'username'
p34
Vjohndoe
p35
sS'first_name'
p36
V
sS'last_name'
p37
V
sg9
S'1.9.2'
p38
sS'is_active'
p39
I01
sg16
g17
(g18
g19
NtRp40
(dp41
g22
I00
sg23
g24
sbsS'email'
p42
Vemail@example.com
p43
sS'is_superuser'
p44
I00
sS'is_staff'
p45
I00
sS'last_login'
p46
g12
(S'\x07\xe0\x08\x16\x08\x02+\x03\x17\x00'
g14
tRp47
sS'_password'
p48
NsS'password'
p49
Vpbkdf2_sha256$24000$4rfJC4Duz4mW$5OvPhTmPYMruM9FINKsbZRPZuQjiMsawzjzWRutWw78=
p50
sS'id'
p51
I2
sS'date_joined'
p52
g12
(S'\x07\xe0\x08\n\n\x03\x0f\x048\x03'
g14
tRp53
sbsS'sample_name'
p54
VLD.Ptepar_usersample
p55
sS'error_code'
p56
I0
sg51
I0
sb.